Certificate:
    Data:
        Version: 3 (0x2)
        Serial Number: 24 (0x18)
        Signature Algorithm: sha256WithRSAEncryption
        Issuer: C=AU, ST=Some-State, O=Internet Widgits Pty Ltd, CN=sndnvaps.com
        Validity
            Not Before: Mar 15 04:36:13 2026 GMT
            Not After : Mar 15 04:36:13 2027 GMT
        Subject: C=AU, ST=Some-State, O=Internet Widgits Pty Ltd, CN=sndnvaps.com
        Subject Public Key Info:
            Public Key Algorithm: rsaEncryption
                RSA Public-Key: (1024 bit)
                Modulus:
                    00:dc:26:9d:1f:78:cf:60:52:12:b5:53:aa:75:d7:
                    c7:1e:20:7c:9f:d4:1c:fa:29:73:ba:21:2d:9b:ea:
                    34:e7:58:df:ef:16:3c:89:bf:68:dc:53:13:b6:89:
                    84:bc:f4:10:fd:c8:9e:4d:de:04:6d:e8:26:a7:05:
                    96:a7:ed:22:f4:92:61:9d:72:ff:f2:49:cb:39:26:
                    da:27:8e:8e:25:01:79:26:28:0f:67:13:62:87:7f:
                    8e:1e:60:63:23:08:14:ba:b4:72:7a:3d:62:df:dd:
                    b2:d5:5e:f7:87:c7:2a:68:c8:b1:bd:25:a5:2c:f3:
                    3b:35:87:ff:65:38:6c:97:d1
                Exponent: 65537 (0x10001)
        X509v3 extensions:
            X509v3 Basic Constraints: 
                CA:FALSE
            Netscape Comment: 
                OpenSSL Generated Certificate
            X509v3 Subject Key Identifier: 
                F1:67:A0:28:FA:D1:28:41:2A:E2:E9:F9:98:E8:73:E0:8E:57:5C:C8
            X509v3 Authority Key Identifier: 
                keyid:CF:78:B3:EB:63:0D:99:06:B5:FA:B0:F1:D5:81:23:7A:45:B2:4C:BC

    Signature Algorithm: sha256WithRSAEncryption
         46:3f:df:bf:5b:12:9d:fa:cb:42:a9:4f:81:0f:d4:7d:6d:ff:
         66:bf:b3:e7:3d:10:01:48:1e:26:6e:d2:8a:05:64:57:ba:bd:
         5d:b5:33:10:98:a5:66:c4:53:b7:d8:42:51:0a:0e:82:39:b3:
         5f:fa:03:29:38:d6:37:02:70:b4:80:72:5a:ee:21:7f:0d:15:
         bc:c4:f9:db:9f:fa:7f:e4:fb:29:47:a9:0c:79:8a:c1:24:ad:
         a0:a6:85:e3:9d:64:06:cb:3d:e7:dc:30:b1:48:88:93:a0:c2:
         7f:aa:90:05:29:09:4d:46:04:66:91:5d:7c:9f:6f:ed:e7:26:
         83:ab
-----BEGIN CERTIFICATE-----
MIICqTCCAhKgAwIBAgIBGDANBgkqhkiG9w0BAQsFADBcMQswCQYDVQQGEwJBVTET
MBEGA1UECAwKU29tZS1TdGF0ZTEhMB8GA1UECgwYSW50ZXJuZXQgV2lkZ2l0cyBQ
dHkgTHRkMRUwEwYDVQQDDAxzbmRudmFwcy5jb20wHhcNMjYwMzE1MDQzNjEzWhcN
MjcwMzE1MDQzNjEzWjBcMQswCQYDVQQGEwJBVTETMBEGA1UECAwKU29tZS1TdGF0
ZTEhMB8GA1UECgwYSW50ZXJuZXQgV2lkZ2l0cyBQdHkgTHRkMRUwEwYDVQQDDAxz
bmRudmFwcy5jb20wgZ8wDQYJKoZIhvcNAQEBBQADgY0AMIGJAoGBANwmnR94z2BS
ErVTqnXXxx4gfJ/UHPopc7ohLZvqNOdY3+8WPIm/aNxTE7aJhLz0EP3Ink3eBG3o
JqcFlqftIvSSYZ1y//JJyzkm2ieOjiUBeSYoD2cTYod/jh5gYyMIFLq0cno9Yt/d
stVe94fHKmjIsb0lpSzzOzWH/2U4bJfRAgMBAAGjezB5MAkGA1UdEwQCMAAwLAYJ
YIZIAYb4QgENBB8WHU9wZW5TU0wgR2VuZXJhdGVkIENlcnRpZmljYXRlMB0GA1Ud
DgQWBBTxZ6Ao+tEoQSri6fmY6HPgjldcyDAfBgNVHSMEGDAWgBTPeLPrYw2ZBrX6
sPHVgSN6RbJMvDANBgkqhkiG9w0BAQsFAAOBgQBGP9+/WxKd+stCqU+BD9R9bf9m
v7PnPRABSB4mbtKKBWRXur1dtTMQmKVmxFO32EJRCg6CObNf+gMpONY3AnC0gHJa
7iF/DRW8xPnbn/p/5PspR6kMeYrBJK2gpoXjnWQGyz3n3DCxSIiToMJ/qpAFKQlN
RgRmkV18n2/t5yaDqw==
-----END CERTIFICATE-----
